target datalayout = "e-m:e-p270:32:32-p271:32:32-p272:64:64-i64:64-i128:128-f80:128-n8:16:32:64-S128"
target triple = "x86_64-pc-linux-gnu"

%struct._zval_struct = type { %union._zend_value, %union.anon, %union.anon.2 }
%union._zend_value = type { i64 }
%union.anon = type { i32 }
%union.anon.2 = type { i32 }
%struct._zend_refcounted_h = type { i32, %union.anon.3 }
%union.anon.3 = type { i32 }
%struct._zend_execute_data = type { ptr, ptr, ptr, ptr, %struct._zval_struct, ptr, ptr, ptr, ptr }
%struct._zend_string = type { %struct._zend_refcounted_h, i64, i64, [1 x i8] }

@.str = private unnamed_addr constant [30 x i8] c"Unable to fetch host [%d]: %s\00", align 1

; Function Attrs: nounwind uwtable
define hidden void @zif_gethostname(ptr noundef %0, ptr noundef %1) #0 {
  %3 = alloca ptr, align 8
  %4 = alloca i32, align 4
  %5 = alloca i64, align 8
  %6 = alloca i8, align 1
  %7 = alloca ptr, align 8
  %8 = alloca ptr, align 8
  %9 = alloca i64, align 8
  %10 = alloca i8, align 1
  %11 = alloca ptr, align 8
  %12 = alloca ptr, align 8
  %13 = alloca ptr, align 8
  %14 = alloca [65 x i8], align 16
  %15 = alloca ptr, align 8
  %16 = alloca ptr, align 8
  %17 = alloca ptr, align 8
  store ptr %0, ptr %12, align 8
  store ptr %1, ptr %13, align 8
  br label %18

18:                                               ; preds = %2
  %19 = load ptr, ptr %12, align 8
  %20 = getelementptr inbounds %struct._zend_execute_data, ptr %19, i32 0, i32 4
  %21 = getelementptr inbounds %struct._zval_struct, ptr %20, i32 0, i32 2
  %22 = load i32, ptr %21, align 4
  %23 = icmp ne i32 %22, 0
  %24 = xor i1 %23, true
  %25 = xor i1 %24, true
  %26 = zext i1 %25 to i32
  %27 = sext i32 %26 to i64
  %28 = icmp ne i64 %27, 0
  br i1 %28, label %29, label %30

29:                                               ; preds = %18
  call void @zend_wrong_parameters_none_error()
  br label %509

30:                                               ; preds = %18
  br label %31

31:                                               ; preds = %30
  %32 = getelementptr inbounds [65 x i8], ptr %14, i64 0, i64 0
  %33 = call i32 @gethostname(ptr noundef %32, i64 noundef 65) #10
  %34 = icmp ne i32 %33, 0
  br i1 %34, label %35, label %47

35:                                               ; preds = %31
  %36 = call ptr @__errno_location() #11
  %37 = load i32, ptr %36, align 4
  %38 = call ptr @__errno_location() #11
  %39 = load i32, ptr %38, align 4
  %40 = call ptr @strerror(i32 noundef %39) #10
  call void (ptr, i32, ptr, ...) @php_error_docref(ptr noundef null, i32 noundef 2, ptr noundef @.str, i32 noundef %37, ptr noundef %40)
  br label %41

41:                                               ; preds = %35
  br label %42

42:                                               ; preds = %41
  %43 = load ptr, ptr %13, align 8
  %44 = getelementptr inbounds %struct._zval_struct, ptr %43, i32 0, i32 1
  store i32 2, ptr %44, align 8
  br label %45

45:                                               ; preds = %42
  br label %509

46:                                               ; No predecessors!
  br label %47

47:                                               ; preds = %46, %31
  br label %48

48:                                               ; preds = %47
  br label %49

49:                                               ; preds = %48
  %50 = getelementptr inbounds [65 x i8], ptr %14, i64 0, i64 0
  store ptr %50, ptr %15, align 8
  br label %51

51:                                               ; preds = %49
  br label %52

52:                                               ; preds = %51
  %53 = load ptr, ptr %13, align 8
  store ptr %53, ptr %16, align 8
  %54 = load ptr, ptr %15, align 8
  %55 = load ptr, ptr %15, align 8
  %56 = call i64 @strlen(ptr noundef %55) #12
  store ptr %54, ptr %8, align 8
  store i64 %56, ptr %9, align 8
  store i8 0, ptr %10, align 1
  %57 = load i64, ptr %9, align 8
  %58 = load i8, ptr %10, align 1
  %59 = trunc i8 %58 to i1
  store i64 %57, ptr %5, align 8
  %60 = zext i1 %59 to i8
  store i8 %60, ptr %6, align 1
  %61 = load i8, ptr %6, align 1
  %62 = trunc i8 %61 to i1
  br i1 %62, label %63, label %71

63:                                               ; preds = %52
  %64 = load i64, ptr %5, align 8
  %65 = add i64 24, %64
  %66 = add i64 %65, 1
  %67 = add i64 %66, 8
  %68 = sub i64 %67, 1
  %69 = and i64 %68, -8
  %70 = call noalias ptr @__zend_malloc(i64 noundef %69) #13
  br label %475

71:                                               ; preds = %52
  %72 = load i64, ptr %5, align 8
  %73 = add i64 24, %72
  %74 = add i64 %73, 1
  %75 = add i64 %74, 8
  %76 = sub i64 %75, 1
  %77 = and i64 %76, -8
  %78 = call i1 @llvm.is.constant.i64(i64 %77)
  br i1 %78, label %79, label %465

79:                                               ; preds = %71
  %80 = load i64, ptr %5, align 8
  %81 = add i64 24, %80
  %82 = add i64 %81, 1
  %83 = add i64 %82, 8
  %84 = sub i64 %83, 1
  %85 = and i64 %84, -8
  %86 = icmp ule i64 %85, 8
  br i1 %86, label %87, label %89

87:                                               ; preds = %79
  %88 = call noalias ptr @_emalloc_8() #10
  br label %463

89:                                               ; preds = %79
  %90 = load i64, ptr %5, align 8
  %91 = add i64 24, %90
  %92 = add i64 %91, 1
  %93 = add i64 %92, 8
  %94 = sub i64 %93, 1
  %95 = and i64 %94, -8
  %96 = icmp ule i64 %95, 16
  br i1 %96, label %97, label %99

97:                                               ; preds = %89
  %98 = call noalias ptr @_emalloc_16() #10
  br label %461

99:                                               ; preds = %89
  %100 = load i64, ptr %5, align 8
  %101 = add i64 24, %100
  %102 = add i64 %101, 1
  %103 = add i64 %102, 8
  %104 = sub i64 %103, 1
  %105 = and i64 %104, -8
  %106 = icmp ule i64 %105, 24
  br i1 %106, label %107, label %109

107:                                              ; preds = %99
  %108 = call noalias ptr @_emalloc_24() #10
  br label %459

109:                                              ; preds = %99
  %110 = load i64, ptr %5, align 8
  %111 = add i64 24, %110
  %112 = add i64 %111, 1
  %113 = add i64 %112, 8
  %114 = sub i64 %113, 1
  %115 = and i64 %114, -8
  %116 = icmp ule i64 %115, 32
  br i1 %116, label %117, label %119

117:                                              ; preds = %109
  %118 = call noalias ptr @_emalloc_32() #10
  br label %457

119:                                              ; preds = %109
  %120 = load i64, ptr %5, align 8
  %121 = add i64 24, %120
  %122 = add i64 %121, 1
  %123 = add i64 %122, 8
  %124 = sub i64 %123, 1
  %125 = and i64 %124, -8
  %126 = icmp ule i64 %125, 40
  br i1 %126, label %127, label %129

127:                                              ; preds = %119
  %128 = call noalias ptr @_emalloc_40() #10
  br label %455

129:                                              ; preds = %119
  %130 = load i64, ptr %5, align 8
  %131 = add i64 24, %130
  %132 = add i64 %131, 1
  %133 = add i64 %132, 8
  %134 = sub i64 %133, 1
  %135 = and i64 %134, -8
  %136 = icmp ule i64 %135, 48
  br i1 %136, label %137, label %139

137:                                              ; preds = %129
  %138 = call noalias ptr @_emalloc_48() #10
  br label %453

139:                                              ; preds = %129
  %140 = load i64, ptr %5, align 8
  %141 = add i64 24, %140
  %142 = add i64 %141, 1
  %143 = add i64 %142, 8
  %144 = sub i64 %143, 1
  %145 = and i64 %144, -8
  %146 = icmp ule i64 %145, 56
  br i1 %146, label %147, label %149

147:                                              ; preds = %139
  %148 = call noalias ptr @_emalloc_56() #10
  br label %451

149:                                              ; preds = %139
  %150 = load i64, ptr %5, align 8
  %151 = add i64 24, %150
  %152 = add i64 %151, 1
  %153 = add i64 %152, 8
  %154 = sub i64 %153, 1
  %155 = and i64 %154, -8
  %156 = icmp ule i64 %155, 64
  br i1 %156, label %157, label %159

157:                                              ; preds = %149
  %158 = call noalias ptr @_emalloc_64() #10
  br label %449

159:                                              ; preds = %149
  %160 = load i64, ptr %5, align 8
  %161 = add i64 24, %160
  %162 = add i64 %161, 1
  %163 = add i64 %162, 8
  %164 = sub i64 %163, 1
  %165 = and i64 %164, -8
  %166 = icmp ule i64 %165, 80
  br i1 %166, label %167, label %169

167:                                              ; preds = %159
  %168 = call noalias ptr @_emalloc_80() #10
  br label %447

169:                                              ; preds = %159
  %170 = load i64, ptr %5, align 8
  %171 = add i64 24, %170
  %172 = add i64 %171, 1
  %173 = add i64 %172, 8
  %174 = sub i64 %173, 1
  %175 = and i64 %174, -8
  %176 = icmp ule i64 %175, 96
  br i1 %176, label %177, label %179

177:                                              ; preds = %169
  %178 = call noalias ptr @_emalloc_96() #10
  br label %445

179:                                              ; preds = %169
  %180 = load i64, ptr %5, align 8
  %181 = add i64 24, %180
  %182 = add i64 %181, 1
  %183 = add i64 %182, 8
  %184 = sub i64 %183, 1
  %185 = and i64 %184, -8
  %186 = icmp ule i64 %185, 112
  br i1 %186, label %187, label %189

187:                                              ; preds = %179
  %188 = call noalias ptr @_emalloc_112() #10
  br label %443

189:                                              ; preds = %179
  %190 = load i64, ptr %5, align 8
  %191 = add i64 24, %190
  %192 = add i64 %191, 1
  %193 = add i64 %192, 8
  %194 = sub i64 %193, 1
  %195 = and i64 %194, -8
  %196 = icmp ule i64 %195, 128
  br i1 %196, label %197, label %199

197:                                              ; preds = %189
  %198 = call noalias ptr @_emalloc_128() #10
  br label %441

199:                                              ; preds = %189
  %200 = load i64, ptr %5, align 8
  %201 = add i64 24, %200
  %202 = add i64 %201, 1
  %203 = add i64 %202, 8
  %204 = sub i64 %203, 1
  %205 = and i64 %204, -8
  %206 = icmp ule i64 %205, 160
  br i1 %206, label %207, label %209

207:                                              ; preds = %199
  %208 = call noalias ptr @_emalloc_160() #10
  br label %439

209:                                              ; preds = %199
  %210 = load i64, ptr %5, align 8
  %211 = add i64 24, %210
  %212 = add i64 %211, 1
  %213 = add i64 %212, 8
  %214 = sub i64 %213, 1
  %215 = and i64 %214, -8
  %216 = icmp ule i64 %215, 192
  br i1 %216, label %217, label %219

217:                                              ; preds = %209
  %218 = call noalias ptr @_emalloc_192() #10
  br label %437

219:                                              ; preds = %209
  %220 = load i64, ptr %5, align 8
  %221 = add i64 24, %220
  %222 = add i64 %221, 1
  %223 = add i64 %222, 8
  %224 = sub i64 %223, 1
  %225 = and i64 %224, -8
  %226 = icmp ule i64 %225, 224
  br i1 %226, label %227, label %229

227:                                              ; preds = %219
  %228 = call noalias ptr @_emalloc_224() #10
  br label %435

229:                                              ; preds = %219
  %230 = load i64, ptr %5, align 8
  %231 = add i64 24, %230
  %232 = add i64 %231, 1
  %233 = add i64 %232, 8
  %234 = sub i64 %233, 1
  %235 = and i64 %234, -8
  %236 = icmp ule i64 %235, 256
  br i1 %236, label %237, label %239

237:                                              ; preds = %229
  %238 = call noalias ptr @_emalloc_256() #10
  br label %433

239:                                              ; preds = %229
  %240 = load i64, ptr %5, align 8
  %241 = add i64 24, %240
  %242 = add i64 %241, 1
  %243 = add i64 %242, 8
  %244 = sub i64 %243, 1
  %245 = and i64 %244, -8
  %246 = icmp ule i64 %245, 320
  br i1 %246, label %247, label %249

247:                                              ; preds = %239
  %248 = call noalias ptr @_emalloc_320() #10
  br label %431

249:                                              ; preds = %239
  %250 = load i64, ptr %5, align 8
  %251 = add i64 24, %250
  %252 = add i64 %251, 1
  %253 = add i64 %252, 8
  %254 = sub i64 %253, 1
  %255 = and i64 %254, -8
  %256 = icmp ule i64 %255, 384
  br i1 %256, label %257, label %259

257:                                              ; preds = %249
  %258 = call noalias ptr @_emalloc_384() #10
  br label %429

259:                                              ; preds = %249
  %260 = load i64, ptr %5, align 8
  %261 = add i64 24, %260
  %262 = add i64 %261, 1
  %263 = add i64 %262, 8
  %264 = sub i64 %263, 1
  %265 = and i64 %264, -8
  %266 = icmp ule i64 %265, 448
  br i1 %266, label %267, label %269

267:                                              ; preds = %259
  %268 = call noalias ptr @_emalloc_448() #10
  br label %427

269:                                              ; preds = %259
  %270 = load i64, ptr %5, align 8
  %271 = add i64 24, %270
  %272 = add i64 %271, 1
  %273 = add i64 %272, 8
  %274 = sub i64 %273, 1
  %275 = and i64 %274, -8
  %276 = icmp ule i64 %275, 512
  br i1 %276, label %277, label %279

277:                                              ; preds = %269
  %278 = call noalias ptr @_emalloc_512() #10
  br label %425

279:                                              ; preds = %269
  %280 = load i64, ptr %5, align 8
  %281 = add i64 24, %280
  %282 = add i64 %281, 1
  %283 = add i64 %282, 8
  %284 = sub i64 %283, 1
  %285 = and i64 %284, -8
  %286 = icmp ule i64 %285, 640
  br i1 %286, label %287, label %289

287:                                              ; preds = %279
  %288 = call noalias ptr @_emalloc_640() #10
  br label %423

289:                                              ; preds = %279
  %290 = load i64, ptr %5, align 8
  %291 = add i64 24, %290
  %292 = add i64 %291, 1
  %293 = add i64 %292, 8
  %294 = sub i64 %293, 1
  %295 = and i64 %294, -8
  %296 = icmp ule i64 %295, 768
  br i1 %296, label %297, label %299

297:                                              ; preds = %289
  %298 = call noalias ptr @_emalloc_768() #10
  br label %421

299:                                              ; preds = %289
  %300 = load i64, ptr %5, align 8
  %301 = add i64 24, %300
  %302 = add i64 %301, 1
  %303 = add i64 %302, 8
  %304 = sub i64 %303, 1
  %305 = and i64 %304, -8
  %306 = icmp ule i64 %305, 896
  br i1 %306, label %307, label %309

307:                                              ; preds = %299
  %308 = call noalias ptr @_emalloc_896() #10
  br label %419

309:                                              ; preds = %299
  %310 = load i64, ptr %5, align 8
  %311 = add i64 24, %310
  %312 = add i64 %311, 1
  %313 = add i64 %312, 8
  %314 = sub i64 %313, 1
  %315 = and i64 %314, -8
  %316 = icmp ule i64 %315, 1024
  br i1 %316, label %317, label %319

317:                                              ; preds = %309
  %318 = call noalias ptr @_emalloc_1024() #10
  br label %417

319:                                              ; preds = %309
  %320 = load i64, ptr %5, align 8
  %321 = add i64 24, %320
  %322 = add i64 %321, 1
  %323 = add i64 %322, 8
  %324 = sub i64 %323, 1
  %325 = and i64 %324, -8
  %326 = icmp ule i64 %325, 1280
  br i1 %326, label %327, label %329

327:                                              ; preds = %319
  %328 = call noalias ptr @_emalloc_1280() #10
  br label %415

329:                                              ; preds = %319
  %330 = load i64, ptr %5, align 8
  %331 = add i64 24, %330
  %332 = add i64 %331, 1
  %333 = add i64 %332, 8
  %334 = sub i64 %333, 1
  %335 = and i64 %334, -8
  %336 = icmp ule i64 %335, 1536
  br i1 %336, label %337, label %339

337:                                              ; preds = %329
  %338 = call noalias ptr @_emalloc_1536() #10
  br label %413

339:                                              ; preds = %329
  %340 = load i64, ptr %5, align 8
  %341 = add i64 24, %340
  %342 = add i64 %341, 1
  %343 = add i64 %342, 8
  %344 = sub i64 %343, 1
  %345 = and i64 %344, -8
  %346 = icmp ule i64 %345, 1792
  br i1 %346, label %347, label %349

347:                                              ; preds = %339
  %348 = call noalias ptr @_emalloc_1792() #10
  br label %411

349:                                              ; preds = %339
  %350 = load i64, ptr %5, align 8
  %351 = add i64 24, %350
  %352 = add i64 %351, 1
  %353 = add i64 %352, 8
  %354 = sub i64 %353, 1
  %355 = and i64 %354, -8
  %356 = icmp ule i64 %355, 2048
  br i1 %356, label %357, label %359

357:                                              ; preds = %349
  %358 = call noalias ptr @_emalloc_2048() #10
  br label %409

359:                                              ; preds = %349
  %360 = load i64, ptr %5, align 8
  %361 = add i64 24, %360
  %362 = add i64 %361, 1
  %363 = add i64 %362, 8
  %364 = sub i64 %363, 1
  %365 = and i64 %364, -8
  %366 = icmp ule i64 %365, 2560
  br i1 %366, label %367, label %369

367:                                              ; preds = %359
  %368 = call noalias ptr @_emalloc_2560() #10
  br label %407

369:                                              ; preds = %359
  %370 = load i64, ptr %5, align 8
  %371 = add i64 24, %370
  %372 = add i64 %371, 1
  %373 = add i64 %372, 8
  %374 = sub i64 %373, 1
  %375 = and i64 %374, -8
  %376 = icmp ule i64 %375, 3072
  br i1 %376, label %377, label %379

377:                                              ; preds = %369
  %378 = call noalias ptr @_emalloc_3072() #10
  br label %405

379:                                              ; preds = %369
  %380 = load i64, ptr %5, align 8
  %381 = add i64 24, %380
  %382 = add i64 %381, 1
  %383 = add i64 %382, 8
  %384 = sub i64 %383, 1
  %385 = and i64 %384, -8
  %386 = icmp ule i64 %385, 2093056
  br i1 %386, label %387, label %395

387:                                              ; preds = %379
  %388 = load i64, ptr %5, align 8
  %389 = add i64 24, %388
  %390 = add i64 %389, 1
  %391 = add i64 %390, 8
  %392 = sub i64 %391, 1
  %393 = and i64 %392, -8
  %394 = call noalias ptr @_emalloc_large(i64 noundef %393) #13
  br label %403

395:                                              ; preds = %379
  %396 = load i64, ptr %5, align 8
  %397 = add i64 24, %396
  %398 = add i64 %397, 1
  %399 = add i64 %398, 8
  %400 = sub i64 %399, 1
  %401 = and i64 %400, -8
  %402 = call noalias ptr @_emalloc_huge(i64 noundef %401) #13
  br label %403

403:                                              ; preds = %395, %387
  %404 = phi ptr [ %394, %387 ], [ %402, %395 ]
  br label %405

405:                                              ; preds = %403, %377
  %406 = phi ptr [ %378, %377 ], [ %404, %403 ]
  br label %407

407:                                              ; preds = %405, %367
  %408 = phi ptr [ %368, %367 ], [ %406, %405 ]
  br label %409

409:                                              ; preds = %407, %357
  %410 = phi ptr [ %358, %357 ], [ %408, %407 ]
  br label %411

411:                                              ; preds = %409, %347
  %412 = phi ptr [ %348, %347 ], [ %410, %409 ]
  br label %413

413:                                              ; preds = %411, %337
  %414 = phi ptr [ %338, %337 ], [ %412, %411 ]
  br label %415

415:                                              ; preds = %413, %327
  %416 = phi ptr [ %328, %327 ], [ %414, %413 ]
  br label %417

417:                                              ; preds = %415, %317
  %418 = phi ptr [ %318, %317 ], [ %416, %415 ]
  br label %419

419:                                              ; preds = %417, %307
  %420 = phi ptr [ %308, %307 ], [ %418, %417 ]
  br label %421

421:                                              ; preds = %419, %297
  %422 = phi ptr [ %298, %297 ], [ %420, %419 ]
  br label %423

423:                                              ; preds = %421, %287
  %424 = phi ptr [ %288, %287 ], [ %422, %421 ]
  br label %425

425:                                              ; preds = %423, %277
  %426 = phi ptr [ %278, %277 ], [ %424, %423 ]
  br label %427

427:                                              ; preds = %425, %267
  %428 = phi ptr [ %268, %267 ], [ %426, %425 ]
  br label %429

429:                                              ; preds = %427, %257
  %430 = phi ptr [ %258, %257 ], [ %428, %427 ]
  br label %431

431:                                              ; preds = %429, %247
  %432 = phi ptr [ %248, %247 ], [ %430, %429 ]
  br label %433

433:                                              ; preds = %431, %237
  %434 = phi ptr [ %238, %237 ], [ %432, %431 ]
  br label %435

435:                                              ; preds = %433, %227
  %436 = phi ptr [ %228, %227 ], [ %434, %433 ]
  br label %437

437:                                              ; preds = %435, %217
  %438 = phi ptr [ %218, %217 ], [ %436, %435 ]
  br label %439

439:                                              ; preds = %437, %207
  %440 = phi ptr [ %208, %207 ], [ %438, %437 ]
  br label %441

441:                                              ; preds = %439, %197
  %442 = phi ptr [ %198, %197 ], [ %440, %439 ]
  br label %443

443:                                              ; preds = %441, %187
  %444 = phi ptr [ %188, %187 ], [ %442, %441 ]
  br label %445

445:                                              ; preds = %443, %177
  %446 = phi ptr [ %178, %177 ], [ %444, %443 ]
  br label %447

447:                                              ; preds = %445, %167
  %448 = phi ptr [ %168, %167 ], [ %446, %445 ]
  br label %449

449:                                              ; preds = %447, %157
  %450 = phi ptr [ %158, %157 ], [ %448, %447 ]
  br label %451

451:                                              ; preds = %449, %147
  %452 = phi ptr [ %148, %147 ], [ %450, %449 ]
  br label %453

453:                                              ; preds = %451, %137
  %454 = phi ptr [ %138, %137 ], [ %452, %451 ]
  br label %455

455:                                              ; preds = %453, %127
  %456 = phi ptr [ %128, %127 ], [ %454, %453 ]
  br label %457

457:                                              ; preds = %455, %117
  %458 = phi ptr [ %118, %117 ], [ %456, %455 ]
  br label %459

459:                                              ; preds = %457, %107
  %460 = phi ptr [ %108, %107 ], [ %458, %457 ]
  br label %461

461:                                              ; preds = %459, %97
  %462 = phi ptr [ %98, %97 ], [ %460, %459 ]
  br label %463

463:                                              ; preds = %461, %87
  %464 = phi ptr [ %88, %87 ], [ %462, %461 ]
  br label %473

465:                                              ; preds = %71
  %466 = load i64, ptr %5, align 8
  %467 = add i64 24, %466
  %468 = add i64 %467, 1
  %469 = add i64 %468, 8
  %470 = sub i64 %469, 1
  %471 = and i64 %470, -8
  %472 = call noalias ptr @_emalloc(i64 noundef %471) #13
  br label %473

473:                                              ; preds = %465, %463
  %474 = phi ptr [ %464, %463 ], [ %472, %465 ]
  br label %475

475:                                              ; preds = %473, %63
  %476 = phi ptr [ %70, %63 ], [ %474, %473 ]
  store ptr %476, ptr %7, align 8
  %477 = load ptr, ptr %7, align 8
  store ptr %477, ptr %3, align 8
  store i32 1, ptr %4, align 4
  %478 = load i32, ptr %4, align 4
  %479 = load ptr, ptr %3, align 8
  store i32 %478, ptr %479, align 4
  %480 = load i8, ptr %6, align 1
  %481 = trunc i8 %480 to i1
  %482 = select i1 %481, i32 128, i32 0
  %483 = or i32 22, %482
  %484 = load ptr, ptr %7, align 8
  %485 = getelementptr inbounds %struct._zend_refcounted_h, ptr %484, i32 0, i32 1
  store i32 %483, ptr %485, align 4
  %486 = load ptr, ptr %7, align 8
  %487 = getelementptr inbounds %struct._zend_string, ptr %486, i32 0, i32 1
  store i64 0, ptr %487, align 8
  %488 = load i64, ptr %5, align 8
  %489 = load ptr, ptr %7, align 8
  %490 = getelementptr inbounds %struct._zend_string, ptr %489, i32 0, i32 2
  store i64 %488, ptr %490, align 8
  %491 = load ptr, ptr %7, align 8
  store ptr %491, ptr %11, align 8
  %492 = load ptr, ptr %11, align 8
  %493 = getelementptr inbounds %struct._zend_string, ptr %492, i32 0, i32 3
  %494 = load ptr, ptr %8, align 8
  %495 = load i64, ptr %9, align 8
  call void @llvm.memcpy.p0.p0.i64(ptr align 8 %493, ptr align 1 %494, i64 %495, i1 false)
  %496 = load ptr, ptr %11, align 8
  %497 = getelementptr inbounds %struct._zend_string, ptr %496, i32 0, i32 3
  %498 = load i64, ptr %9, align 8
  %499 = getelementptr inbounds [1 x i8], ptr %497, i64 0, i64 %498
  store i8 0, ptr %499, align 1
  %500 = load ptr, ptr %11, align 8
  store ptr %500, ptr %17, align 8
  %501 = load ptr, ptr %17, align 8
  %502 = load ptr, ptr %16, align 8
  %503 = getelementptr inbounds %struct._zval_struct, ptr %502, i32 0, i32 0
  store ptr %501, ptr %503, align 8
  %504 = load ptr, ptr %16, align 8
  %505 = getelementptr inbounds %struct._zval_struct, ptr %504, i32 0, i32 1
  store i32 262, ptr %505, align 8
  br label %506

506:                                              ; preds = %475
  br label %507

507:                                              ; preds = %506
  br label %508

508:                                              ; preds = %507
  br label %509

509:                                              ; preds = %508, %45, %29
  ret void
}