; Function Attrs: nounwind uwtable
define hidden void @zif_gethostname(ptr nocapture noundef readonly %0, ptr nocapture noundef writeonly %1) local_unnamed_addr #0 {
  %3 = alloca [65 x i8], align 16
  %4 = getelementptr inbounds i8, ptr %0, i64 44
  %5 = load i32, ptr %4, align 4
  %.not = icmp eq i32 %5, 0
  br i1 %.not, label %7, label %6

6:                                                ; preds = %2
  tail call void @zend_wrong_parameters_none_error() #12
  br label %25

7:                                                ; preds = %2
  %8 = call i32 @gethostname(ptr noundef nonnull %3, i64 noundef 65) #12
  %.not61 = icmp eq i32 %8, 0
  br i1 %.not61, label %14, label %9

9:                                                ; preds = %7
  %10 = tail call ptr @__errno_location() #13
  %11 = load i32, ptr %10, align 4
  %12 = call ptr @strerror(i32 noundef %11) #12
  call void (ptr, i32, ptr, ...) @php_error_docref(ptr noundef null, i32 noundef 2, ptr noundef nonnull @.str, i32 noundef %11, ptr noundef %12) #12
  %13 = getelementptr inbounds i8, ptr %1, i64 8
  store i32 2, ptr %13, align 8
  br label %25

14:                                               ; preds = %7
  %15 = call i64 @strlen(ptr noundef nonnull dereferenceable(1) %3) #14
  %16 = and i64 %15, -8
  %17 = add i64 %16, 32
  %18 = call noalias ptr @_emalloc(i64 noundef %17) #15
  store i32 1, ptr %18, align 4
  %19 = getelementptr inbounds i8, ptr %18, i64 4
  store i32 22, ptr %19, align 4
  %20 = getelementptr inbounds i8, ptr %18, i64 8
  store i64 0, ptr %20, align 8
  %21 = getelementptr inbounds i8, ptr %18, i64 16
  store i64 %15, ptr %21, align 8
  %22 = getelementptr inbounds i8, ptr %18, i64 24
  call void @llvm.memcpy.p0.p0.i64(ptr nonnull align 8 %22, ptr nonnull align 16 %3, i64 %15, i1 false)
  %23 = getelementptr inbounds [1 x i8], ptr %22, i64 0, i64 %15
  store i8 0, ptr %23, align 1
  store ptr %18, ptr %1, align 8
  %24 = getelementptr inbounds i8, ptr %1, i64 8
  store i32 262, ptr %24, align 8
  br label %25

25:                                               ; preds = %14, %9, %6
  ret void
}